target datalayout = "e-m:e-p270:32:32-p271:32:32-p272:64:64-i64:64-i128:128-f80:128-n8:16:32:64-S128"
target triple = "x86_64-pc-linux-gnu"

%struct.gres_state = type { i32, i32, ptr, ptr, i32 }

; Function Attrs: nounwind uwtable
define internal void @_handle_explicit_req(ptr noundef %0, ptr noundef %1) #0 {
  %3 = alloca ptr, align 8
  %4 = alloca ptr, align 8
  %5 = alloca ptr, align 8
  %6 = alloca ptr, align 8
  %7 = alloca i32, align 4
  store ptr %0, ptr %3, align 8
  store ptr %1, ptr %4, align 8
  call void @llvm.lifetime.start.p0(i64 8, ptr %5) #8
  %8 = load ptr, ptr %3, align 8
  store ptr %8, ptr %5, align 8
  call void @llvm.lifetime.start.p0(i64 8, ptr %6) #8
  %9 = load ptr, ptr %4, align 8
  store ptr %9, ptr %6, align 8
  %10 = load ptr, ptr %5, align 8
  %11 = getelementptr inbounds nuw %struct.gres_state, ptr %10, i32 0, i32 0
  %12 = load i32, ptr %11, align 8
  %13 = zext i32 %12 to i64
  %14 = and i64 %13, 4096
  %15 = icmp ne i64 %14, 0
  br i1 %15, label %22, label %16

16:                                               ; preds = %2
  %17 = load ptr, ptr %5, align 8
  %18 = getelementptr inbounds nuw %struct.gres_state, ptr %17, i32 0, i32 0
  %19 = load i32, ptr %18, align 8
  %20 = call zeroext i1 @gres_id_shared(i32 noundef %19)
  br i1 %20, label %22, label %21

21:                                               ; preds = %16
  store i32 1, ptr %7, align 4
  br label %38

22:                                               ; preds = %16, %2
  %23 = load ptr, ptr %6, align 8
  %24 = load ptr, ptr %23, align 8
  %25 = icmp ne ptr %24, null
  br i1 %25, label %29, label %26

26:                                               ; preds = %22
  %27 = call ptr @list_create(ptr noundef @gres_job_list_delete)
  %28 = load ptr, ptr %6, align 8
  store ptr %27, ptr %28, align 8
  br label %29

29:                                               ; preds = %26, %22
  %30 = load ptr, ptr %6, align 8
  %31 = load ptr, ptr %30, align 8
  %32 = load ptr, ptr %5, align 8
  %33 = load ptr, ptr %5, align 8
  %34 = getelementptr inbounds nuw %struct.gres_state, ptr %33, i32 0, i32 2
  %35 = load ptr, ptr %34, align 8
  %36 = call ptr @gres_job_state_dup(ptr noundef %35)
  %37 = call ptr @gres_create_state(ptr noundef %32, i32 noundef 0, i32 noundef 2, ptr noundef %36)
  call void @list_append(ptr noundef %31, ptr noundef %37)
  store i32 0, ptr %7, align 4
  br label %38

38:                                               ; preds = %29, %21
  call void @llvm.lifetime.end.p0(i64 8, ptr %6) #8
  call void @llvm.lifetime.end.p0(i64 8, ptr %5) #8
  %39 = load i32, ptr %7, align 4
  switch i32 %39, label %41 [
    i32 0, label %40
    i32 1, label %40
  ]

40:                                               ; preds = %38, %38
  ret void

41:                                               ; preds = %38
  unreachable
}