; Function Attrs: nounwind uwtable
define internal void @_handle_explicit_req(ptr noundef %0, ptr noundef captures(none) %1) #0 {
  %3 = load i32, ptr %0, align 8
  %4 = and i32 %3, 4096
  %.not = icmp eq i32 %4, 0
  br i1 %.not, label %5, label %7

5:                                                ; preds = %2
  %6 = tail call zeroext i1 @gres_id_shared(i32 noundef %3) #14
  br i1 %6, label %7, label %17

7:                                                ; preds = %5, %2
  %8 = load ptr, ptr %1, align 8
  %.not9 = icmp eq ptr %8, null
  br i1 %.not9, label %9, label %11

9:                                                ; preds = %7
  %10 = tail call ptr @list_create(ptr noundef nonnull @gres_job_list_delete) #14
  store ptr %10, ptr %1, align 8
  br label %11

11:                                               ; preds = %9, %7
  %12 = phi ptr [ %10, %9 ], [ %8, %7 ]
  %13 = getelementptr inbounds nuw i8, ptr %0, i64 8
  %14 = load ptr, ptr %13, align 8
  %15 = tail call ptr @gres_job_state_dup(ptr noundef %14) #14
  %16 = tail call ptr @gres_create_state(ptr noundef nonnull %0, i32 noundef 0, i32 noundef 2, ptr noundef %15) #14
  tail call void @list_append(ptr noundef %12, ptr noundef %16) #14
  br label %17

17:                                               ; preds = %5, %11
  ret void
}